target datalayout = "e-m:e-p270:32:32-p271:32:32-p272:64:64-i64:64-i128:128-f80:128-n8:16:32:64-S128"
target triple = "x86_64-pc-linux-gnu"

%struct.expert_field = type { i32, i32 }
%struct._packet_info = type { ptr, ptr, i32, i32, %struct.nstime_t, %struct.nstime_t, %struct.nstime_t, i8, ptr, ptr, ptr, ptr, %struct._address, %struct._address, %struct._address, %struct._address, %struct._address, %struct._address, i32, ptr, i8, [3 x i8], %struct.anon, i32, i32, i32, i32, ptr, i8, ptr, ptr, i16, i16, i32, i32, i16, i32, i32, ptr, ptr, ptr, i8, i8, i16, i16, i16, i32, i16, i16, ptr, ptr, ptr, ptr, ptr, i32, i32 }
%struct.nstime_t = type { i64, i32 }
%struct._address = type { i32, i32, ptr, ptr }
%struct.anon = type { i8, [3 x i8] }

@ei_gsm_a_gm_extraneous_data = internal global %struct.expert_field zeroinitializer, align 4
@ei_gsm_a_gm_missing_mandatory_element = internal global %struct.expert_field zeroinitializer, align 4
@.str.1095 = private unnamed_addr constant [62 x i8] c"Missing Mandatory element %s%s, rest of dissection is suspect\00", align 1
@.str.1127 = private unnamed_addr constant [19 x i8] c" - Requested NSAPI\00", align 1
@.str.1128 = private unnamed_addr constant [22 x i8] c" - Requested LLC SAPI\00", align 1
@.str.1129 = private unnamed_addr constant [17 x i8] c" - Requested QoS\00", align 1
@.str.1130 = private unnamed_addr constant [25 x i8] c" - Requested PDP address\00", align 1

; Function Attrs: null_pointer_is_valid sspstrong uwtable
define internal void @dtap_sm_act_pdp_req(ptr noundef %0, ptr noundef %1, ptr noundef %2, i32 noundef %3, i32 noundef %4) #1 {
  %6 = alloca ptr, align 8
  %7 = alloca ptr, align 8
  %8 = alloca ptr, align 8
  %9 = alloca i32, align 4
  %10 = alloca i32, align 4
  %11 = alloca i32, align 4
  %12 = alloca i32, align 4
  %13 = alloca i32, align 4
  %14 = alloca i32, align 4
  store ptr %0, ptr %6, align 8
  store ptr %1, ptr %7, align 8
  store ptr %2, ptr %8, align 8
  store i32 %3, ptr %9, align 4
  store i32 %4, ptr %10, align 4
  call void @llvm.lifetime.start.p0(i64 4, ptr %11) #6
  call void @llvm.lifetime.start.p0(i64 4, ptr %12) #6
  call void @llvm.lifetime.start.p0(i64 4, ptr %13) #6
  %15 = load i32, ptr %9, align 4
  store i32 %15, ptr %11, align 4
  %16 = load i32, ptr %10, align 4
  store i32 %16, ptr %13, align 4
  %17 = load ptr, ptr %8, align 8
  %18 = getelementptr inbounds nuw %struct._packet_info, ptr %17, i32 0, i32 37
  store i32 -1, ptr %18, align 4
  %19 = load ptr, ptr %8, align 8
  %20 = getelementptr inbounds nuw %struct._packet_info, ptr %19, i32 0, i32 46
  store i32 0, ptr %20, align 8
  %21 = load i32, ptr %13, align 4
  %22 = icmp sgt i32 %21, 0
  br i1 %22, label %23, label %38

23:                                               ; preds = %5
  %24 = load ptr, ptr %6, align 8
  %25 = load ptr, ptr %7, align 8
  %26 = load ptr, ptr %8, align 8
  %27 = load i32, ptr %11, align 4
  %28 = call zeroext i16 @elem_v(ptr noundef %24, ptr noundef %25, ptr noundef %26, i32 noundef 5, i32 noundef 44, i32 noundef %27, ptr noundef @.str.1127)
  %29 = zext i16 %28 to i32
  store i32 %29, ptr %12, align 4
  %30 = icmp ugt i32 %29, 0
  br i1 %30, label %31, label %38

31:                                               ; preds = %23
  %32 = load i32, ptr %12, align 4
  %33 = load i32, ptr %11, align 4
  %34 = add i32 %33, %32
  store i32 %34, ptr %11, align 4
  %35 = load i32, ptr %12, align 4
  %36 = load i32, ptr %13, align 4
  %37 = sub i32 %36, %35
  store i32 %37, ptr %13, align 4
  br label %45

38:                                               ; preds = %23, %5
  %39 = load ptr, ptr %7, align 8
  %40 = load ptr, ptr %8, align 8
  %41 = load ptr, ptr %6, align 8
  %42 = load i32, ptr %11, align 4
  %43 = call ptr @get_gsm_a_msg_string(i32 noundef 5, i32 noundef 44)
  %44 = call ptr (ptr, ptr, ptr, ptr, i32, i32, ptr, ...) @proto_tree_add_expert_format(ptr noundef %39, ptr noundef %40, ptr noundef @ei_gsm_a_gm_missing_mandatory_element, ptr noundef %41, i32 noundef %42, i32 noundef 0, ptr noundef @.str.1095, ptr noundef %43, ptr noundef @.str.1127)
  br label %45

45:                                               ; preds = %38, %31
  %46 = load i32, ptr %13, align 4
  %47 = icmp sgt i32 %46, 0
  br i1 %47, label %48, label %63

48:                                               ; preds = %45
  %49 = load ptr, ptr %6, align 8
  %50 = load ptr, ptr %7, align 8
  %51 = load ptr, ptr %8, align 8
  %52 = load i32, ptr %11, align 4
  %53 = call zeroext i16 @elem_v(ptr noundef %49, ptr noundef %50, ptr noundef %51, i32 noundef 5, i32 noundef 54, i32 noundef %52, ptr noundef @.str.1128)
  %54 = zext i16 %53 to i32
  store i32 %54, ptr %12, align 4
  %55 = icmp ugt i32 %54, 0
  br i1 %55, label %56, label %63

56:                                               ; preds = %48
  %57 = load i32, ptr %12, align 4
  %58 = load i32, ptr %11, align 4
  %59 = add i32 %58, %57
  store i32 %59, ptr %11, align 4
  %60 = load i32, ptr %12, align 4
  %61 = load i32, ptr %13, align 4
  %62 = sub i32 %61, %60
  store i32 %62, ptr %13, align 4
  br label %70

63:                                               ; preds = %48, %45
  %64 = load ptr, ptr %7, align 8
  %65 = load ptr, ptr %8, align 8
  %66 = load ptr, ptr %6, align 8
  %67 = load i32, ptr %11, align 4
  %68 = call ptr @get_gsm_a_msg_string(i32 noundef 5, i32 noundef 54)
  %69 = call ptr (ptr, ptr, ptr, ptr, i32, i32, ptr, ...) @proto_tree_add_expert_format(ptr noundef %64, ptr noundef %65, ptr noundef @ei_gsm_a_gm_missing_mandatory_element, ptr noundef %66, i32 noundef %67, i32 noundef 0, ptr noundef @.str.1095, ptr noundef %68, ptr noundef @.str.1128)
  br label %70

70:                                               ; preds = %63, %56
  %71 = load i32, ptr %13, align 4
  %72 = icmp sgt i32 %71, 0
  br i1 %72, label %73, label %89

73:                                               ; preds = %70
  %74 = load ptr, ptr %6, align 8
  %75 = load ptr, ptr %7, align 8
  %76 = load ptr, ptr %8, align 8
  %77 = load i32, ptr %11, align 4
  %78 = load i32, ptr %13, align 4
  %79 = call zeroext i16 @elem_lv(ptr noundef %74, ptr noundef %75, ptr noundef %76, i32 noundef 5, i32 noundef 48, i32 noundef %77, i32 noundef %78, ptr noundef @.str.1129)
  %80 = zext i16 %79 to i32
  store i32 %80, ptr %12, align 4
  %81 = icmp ugt i32 %80, 0
  br i1 %81, label %82, label %89

82:                                               ; preds = %73
  %83 = load i32, ptr %12, align 4
  %84 = load i32, ptr %11, align 4
  %85 = add i32 %84, %83
  store i32 %85, ptr %11, align 4
  %86 = load i32, ptr %12, align 4
  %87 = load i32, ptr %13, align 4
  %88 = sub i32 %87, %86
  store i32 %88, ptr %13, align 4
  br label %96

89:                                               ; preds = %73, %70
  %90 = load ptr, ptr %7, align 8
  %91 = load ptr, ptr %8, align 8
  %92 = load ptr, ptr %6, align 8
  %93 = load i32, ptr %11, align 4
  %94 = call ptr @get_gsm_a_msg_string(i32 noundef 5, i32 noundef 48)
  %95 = call ptr (ptr, ptr, ptr, ptr, i32, i32, ptr, ...) @proto_tree_add_expert_format(ptr noundef %90, ptr noundef %91, ptr noundef @ei_gsm_a_gm_missing_mandatory_element, ptr noundef %92, i32 noundef %93, i32 noundef 0, ptr noundef @.str.1095, ptr noundef %94, ptr noundef @.str.1129)
  br label %96

96:                                               ; preds = %89, %82
  %97 = load i32, ptr %13, align 4
  %98 = icmp sgt i32 %97, 0
  br i1 %98, label %99, label %115

99:                                               ; preds = %96
  %100 = load ptr, ptr %6, align 8
  %101 = load ptr, ptr %7, align 8
  %102 = load ptr, ptr %8, align 8
  %103 = load i32, ptr %11, align 4
  %104 = load i32, ptr %13, align 4
  %105 = call zeroext i16 @elem_lv(ptr noundef %100, ptr noundef %101, ptr noundef %102, i32 noundef 5, i32 noundef 47, i32 noundef %103, i32 noundef %104, ptr noundef @.str.1130)
  %106 = zext i16 %105 to i32
  store i32 %106, ptr %12, align 4
  %107 = icmp ugt i32 %106, 0
  br i1 %107, label %108, label %115

108:                                              ; preds = %99
  %109 = load i32, ptr %12, align 4
  %110 = load i32, ptr %11, align 4
  %111 = add i32 %110, %109
  store i32 %111, ptr %11, align 4
  %112 = load i32, ptr %12, align 4
  %113 = load i32, ptr %13, align 4
  %114 = sub i32 %113, %112
  store i32 %114, ptr %13, align 4
  br label %122

115:                                              ; preds = %99, %96
  %116 = load ptr, ptr %7, align 8
  %117 = load ptr, ptr %8, align 8
  %118 = load ptr, ptr %6, align 8
  %119 = load i32, ptr %11, align 4
  %120 = call ptr @get_gsm_a_msg_string(i32 noundef 5, i32 noundef 47)
  %121 = call ptr (ptr, ptr, ptr, ptr, i32, i32, ptr, ...) @proto_tree_add_expert_format(ptr noundef %116, ptr noundef %117, ptr noundef @ei_gsm_a_gm_missing_mandatory_element, ptr noundef %118, i32 noundef %119, i32 noundef 0, ptr noundef @.str.1095, ptr noundef %120, ptr noundef @.str.1130)
  br label %122

122:                                              ; preds = %115, %108
  %123 = load i32, ptr %13, align 4
  %124 = icmp sle i32 %123, 0
  br i1 %124, label %125, label %126

125:                                              ; preds = %122
  store i32 1, ptr %14, align 4
  br label %276

126:                                              ; preds = %122
  %127 = load ptr, ptr %6, align 8
  %128 = load ptr, ptr %7, align 8
  %129 = load ptr, ptr %8, align 8
  %130 = load i32, ptr %11, align 4
  %131 = load i32, ptr %13, align 4
  %132 = call zeroext i16 @elem_tlv(ptr noundef %127, ptr noundef %128, ptr noundef %129, i8 noundef zeroext 40, i32 noundef 5, i32 noundef 43, i32 noundef %130, i32 noundef %131, ptr noundef null)
  %133 = zext i16 %132 to i32
  store i32 %133, ptr %12, align 4
  %134 = icmp ugt i32 %133, 0
  br i1 %134, label %135, label %142

135:                                              ; preds = %126
  %136 = load i32, ptr %12, align 4
  %137 = load i32, ptr %11, align 4
  %138 = add i32 %137, %136
  store i32 %138, ptr %11, align 4
  %139 = load i32, ptr %12, align 4
  %140 = load i32, ptr %13, align 4
  %141 = sub i32 %140, %139
  store i32 %141, ptr %13, align 4
  br label %142

142:                                              ; preds = %135, %126
  %143 = load i32, ptr %13, align 4
  %144 = icmp sle i32 %143, 0
  br i1 %144, label %145, label %146

145:                                              ; preds = %142
  store i32 1, ptr %14, align 4
  br label %276

146:                                              ; preds = %142
  %147 = load ptr, ptr %6, align 8
  %148 = load ptr, ptr %7, align 8
  %149 = load ptr, ptr %8, align 8
  %150 = load i32, ptr %11, align 4
  %151 = load i32, ptr %13, align 4
  %152 = call zeroext i16 @elem_tlv(ptr noundef %147, ptr noundef %148, ptr noundef %149, i8 noundef zeroext 39, i32 noundef 5, i32 noundef 45, i32 noundef %150, i32 noundef %151, ptr noundef null)
  %153 = zext i16 %152 to i32
  store i32 %153, ptr %12, align 4
  %154 = icmp ugt i32 %153, 0
  br i1 %154, label %155, label %162

155:                                              ; preds = %146
  %156 = load i32, ptr %12, align 4
  %157 = load i32, ptr %11, align 4
  %158 = add i32 %157, %156
  store i32 %158, ptr %11, align 4
  %159 = load i32, ptr %12, align 4
  %160 = load i32, ptr %13, align 4
  %161 = sub i32 %160, %159
  store i32 %161, ptr %13, align 4
  br label %162

162:                                              ; preds = %155, %146
  %163 = load i32, ptr %13, align 4
  %164 = icmp sle i32 %163, 0
  br i1 %164, label %165, label %166

165:                                              ; preds = %162
  store i32 1, ptr %14, align 4
  br label %276

166:                                              ; preds = %162
  %167 = load ptr, ptr %6, align 8
  %168 = load ptr, ptr %7, align 8
  %169 = load ptr, ptr %8, align 8
  %170 = load i32, ptr %11, align 4
  %171 = call zeroext i16 @elem_tv_short(ptr noundef %167, ptr noundef %168, ptr noundef %169, i8 noundef zeroext -96, i32 noundef 5, i32 noundef 62, i32 noundef %170, ptr noundef null)
  %172 = zext i16 %171 to i32
  store i32 %172, ptr %12, align 4
  %173 = icmp ugt i32 %172, 0
  br i1 %173, label %174, label %181

174:                                              ; preds = %166
  %175 = load i32, ptr %12, align 4
  %176 = load i32, ptr %11, align 4
  %177 = add i32 %176, %175
  store i32 %177, ptr %11, align 4
  %178 = load i32, ptr %12, align 4
  %179 = load i32, ptr %13, align 4
  %180 = sub i32 %179, %178
  store i32 %180, ptr %13, align 4
  br label %181

181:                                              ; preds = %174, %166
  %182 = load i32, ptr %13, align 4
  %183 = icmp sle i32 %182, 0
  br i1 %183, label %184, label %185

184:                                              ; preds = %181
  store i32 1, ptr %14, align 4
  br label %276

185:                                              ; preds = %181
  %186 = load ptr, ptr %6, align 8
  %187 = load ptr, ptr %7, align 8
  %188 = load ptr, ptr %8, align 8
  %189 = load i32, ptr %11, align 4
  %190 = call zeroext i16 @elem_tv_short(ptr noundef %186, ptr noundef %187, ptr noundef %188, i8 noundef zeroext -64, i32 noundef 5, i32 noundef 75, i32 noundef %189, ptr noundef null)
  %191 = zext i16 %190 to i32
  store i32 %191, ptr %12, align 4
  %192 = icmp ugt i32 %191, 0
  br i1 %192, label %193, label %200

193:                                              ; preds = %185
  %194 = load i32, ptr %12, align 4
  %195 = load i32, ptr %11, align 4
  %196 = add i32 %195, %194
  store i32 %196, ptr %11, align 4
  %197 = load i32, ptr %12, align 4
  %198 = load i32, ptr %13, align 4
  %199 = sub i32 %198, %197
  store i32 %199, ptr %13, align 4
  br label %200

200:                                              ; preds = %193, %185
  %201 = load i32, ptr %13, align 4
  %202 = icmp sle i32 %201, 0
  br i1 %202, label %203, label %204

203:                                              ; preds = %200
  store i32 1, ptr %14, align 4
  br label %276

204:                                              ; preds = %200
  %205 = load ptr, ptr %6, align 8
  %206 = load ptr, ptr %7, align 8
  %207 = load ptr, ptr %8, align 8
  %208 = load i32, ptr %11, align 4
  %209 = load i32, ptr %13, align 4
  %210 = call zeroext i16 @elem_tlv(ptr noundef %205, ptr noundef %206, ptr noundef %207, i8 noundef zeroext 51, i32 noundef 5, i32 noundef 66, i32 noundef %208, i32 noundef %209, ptr noundef null)
  %211 = zext i16 %210 to i32
  store i32 %211, ptr %12, align 4
  %212 = icmp ugt i32 %211, 0
  br i1 %212, label %213, label %220

213:                                              ; preds = %204
  %214 = load i32, ptr %12, align 4
  %215 = load i32, ptr %11, align 4
  %216 = add i32 %215, %214
  store i32 %216, ptr %11, align 4
  %217 = load i32, ptr %12, align 4
  %218 = load i32, ptr %13, align 4
  %219 = sub i32 %218, %217
  store i32 %219, ptr %13, align 4
  br label %220

220:                                              ; preds = %213, %204
  %221 = load i32, ptr %13, align 4
  %222 = icmp sle i32 %221, 0
  br i1 %222, label %223, label %224

223:                                              ; preds = %220
  store i32 1, ptr %14, align 4
  br label %276

224:                                              ; preds = %220
  %225 = load ptr, ptr %6, align 8
  %226 = load ptr, ptr %7, align 8
  %227 = load ptr, ptr %8, align 8
  %228 = load i32, ptr %11, align 4
  %229 = load i32, ptr %13, align 4
  %230 = call zeroext i16 @elem_tlv_e(ptr noundef %225, ptr noundef %226, ptr noundef %227, i8 noundef zeroext 123, i32 noundef 5, i32 noundef 46, i32 noundef %228, i32 noundef %229, ptr noundef null)
  %231 = zext i16 %230 to i32
  store i32 %231, ptr %12, align 4
  %232 = icmp ugt i32 %231, 0
  br i1 %232, label %233, label %240

233:                                              ; preds = %224
  %234 = load i32, ptr %12, align 4
  %235 = load i32, ptr %11, align 4
  %236 = add i32 %235, %234
  store i32 %236, ptr %11, align 4
  %237 = load i32, ptr %12, align 4
  %238 = load i32, ptr %13, align 4
  %239 = sub i32 %238, %237
  store i32 %239, ptr %13, align 4
  br label %240

240:                                              ; preds = %233, %224
  %241 = load i32, ptr %13, align 4
  %242 = icmp sle i32 %241, 0
  br i1 %242, label %243, label %244

243:                                              ; preds = %240
  store i32 1, ptr %14, align 4
  br label %276

244:                                              ; preds = %240
  %245 = load ptr, ptr %6, align 8
  %246 = load ptr, ptr %7, align 8
  %247 = load ptr, ptr %8, align 8
  %248 = load i32, ptr %11, align 4
  %249 = load i32, ptr %13, align 4
  %250 = call zeroext i16 @elem_tlv(ptr noundef %245, ptr noundef %246, ptr noundef %247, i8 noundef zeroext 92, i32 noundef 5, i32 noundef 50, i32 noundef %248, i32 noundef %249, ptr noundef null)
  %251 = zext i16 %250 to i32
  store i32 %251, ptr %12, align 4
  %252 = icmp ugt i32 %251, 0
  br i1 %252, label %253, label %260

253:                                              ; preds = %244
  %254 = load i32, ptr %12, align 4
  %255 = load i32, ptr %11, align 4
  %256 = add i32 %255, %254
  store i32 %256, ptr %11, align 4
  %257 = load i32, ptr %12, align 4
  %258 = load i32, ptr %13, align 4
  %259 = sub i32 %258, %257
  store i32 %259, ptr %13, align 4
  br label %260

260:                                              ; preds = %253, %244
  %261 = load i32, ptr %13, align 4
  %262 = icmp ugt i32 %261, 0
  br i1 %262, label %263, label %275

263:                                              ; preds = %260
  %264 = load ptr, ptr %7, align 8
  %265 = load ptr, ptr %8, align 8
  %266 = load ptr, ptr %6, align 8
  %267 = load i32, ptr %11, align 4
  %268 = load i32, ptr %13, align 4
  %269 = sub i32 %268, 0
  %270 = call ptr @proto_tree_add_expert(ptr noundef %264, ptr noundef %265, ptr noundef @ei_gsm_a_gm_extraneous_data, ptr noundef %266, i32 noundef %267, i32 noundef %269)
  %271 = load i32, ptr %13, align 4
  %272 = sub i32 %271, 0
  %273 = load i32, ptr %11, align 4
  %274 = add i32 %273, %272
  store i32 %274, ptr %11, align 4
  br label %275

275:                                              ; preds = %263, %260
  store i32 0, ptr %14, align 4
  br label %276

276:                                              ; preds = %275, %243, %223, %203, %184, %165, %145, %125
  call void @llvm.lifetime.end.p0(i64 4, ptr %13) #6
  call void @llvm.lifetime.end.p0(i64 4, ptr %12) #6
  call void @llvm.lifetime.end.p0(i64 4, ptr %11) #6
  %277 = load i32, ptr %14, align 4
  switch i32 %277, label %279 [
    i32 0, label %278
    i32 1, label %278
  ]

278:                                              ; preds = %276, %276
  ret void

279:                                              ; preds = %276
  unreachable
}