; Function Attrs: null_pointer_is_valid sspstrong uwtable
define internal void @dtap_sm_act_pdp_req(ptr noundef %0, ptr noundef %1, ptr noundef initializes((348, 352), (384, 388)) %2, i32 noundef %3, i32 noundef %4) #1 {
  %6 = getelementptr inbounds nuw i8, ptr %2, i64 348
  store i32 -1, ptr %6, align 4
  %7 = getelementptr inbounds nuw i8, ptr %2, i64 384
  store i32 0, ptr %7, align 8
  %8 = icmp sgt i32 %4, 0
  br i1 %8, label %9, label %15

9:                                                ; preds = %5
  %10 = tail call zeroext i16 @elem_v(ptr noundef %0, ptr noundef %1, ptr noundef %2, i32 noundef 5, i32 noundef 44, i32 noundef %3, ptr noundef nonnull @.str.1127)
  %.not = icmp eq i16 %10, 0
  br i1 %.not, label %15, label %11

11:                                               ; preds = %9
  %12 = zext i16 %10 to i32
  %13 = add i32 %3, %12
  %14 = sub nsw i32 %4, %12
  br label %18

15:                                               ; preds = %9, %5
  %16 = tail call ptr @get_gsm_a_msg_string(i32 noundef 5, i32 noundef 44)
  %17 = tail call ptr (ptr, ptr, ptr, ptr, i32, i32, ptr, ...) @proto_tree_add_expert_format(ptr noundef %1, ptr noundef %2, ptr noundef nonnull @ei_gsm_a_gm_missing_mandatory_element, ptr noundef %0, i32 noundef %3, i32 noundef 0, ptr noundef nonnull @.str.1095, ptr noundef %16, ptr noundef nonnull @.str.1127)
  br label %18

18:                                               ; preds = %15, %11
  %.0133 = phi i32 [ %13, %11 ], [ %3, %15 ]
  %.0 = phi i32 [ %14, %11 ], [ %4, %15 ]
  %19 = icmp sgt i32 %.0, 0
  br i1 %19, label %20, label %26

20:                                               ; preds = %18
  %21 = tail call zeroext i16 @elem_v(ptr noundef %0, ptr noundef %1, ptr noundef %2, i32 noundef 5, i32 noundef 54, i32 noundef %.0133, ptr noundef nonnull @.str.1128)
  %.not156 = icmp eq i16 %21, 0
  br i1 %.not156, label %26, label %22

22:                                               ; preds = %20
  %23 = zext i16 %21 to i32
  %24 = add i32 %.0133, %23
  %25 = sub nsw i32 %.0, %23
  br label %29

26:                                               ; preds = %20, %18
  %27 = tail call ptr @get_gsm_a_msg_string(i32 noundef 5, i32 noundef 54)
  %28 = tail call ptr (ptr, ptr, ptr, ptr, i32, i32, ptr, ...) @proto_tree_add_expert_format(ptr noundef %1, ptr noundef %2, ptr noundef nonnull @ei_gsm_a_gm_missing_mandatory_element, ptr noundef %0, i32 noundef %.0133, i32 noundef 0, ptr noundef nonnull @.str.1095, ptr noundef %27, ptr noundef nonnull @.str.1128)
  br label %29

29:                                               ; preds = %26, %22
  %.1134 = phi i32 [ %24, %22 ], [ %.0133, %26 ]
  %.1 = phi i32 [ %25, %22 ], [ %.0, %26 ]
  %30 = icmp sgt i32 %.1, 0
  br i1 %30, label %31, label %37

31:                                               ; preds = %29
  %32 = tail call zeroext i16 @elem_lv(ptr noundef %0, ptr noundef %1, ptr noundef %2, i32 noundef 5, i32 noundef 48, i32 noundef %.1134, i32 noundef %.1, ptr noundef nonnull @.str.1129)
  %.not157 = icmp eq i16 %32, 0
  br i1 %.not157, label %37, label %33

33:                                               ; preds = %31
  %34 = zext i16 %32 to i32
  %35 = add i32 %.1134, %34
  %36 = sub nsw i32 %.1, %34
  br label %40

37:                                               ; preds = %31, %29
  %38 = tail call ptr @get_gsm_a_msg_string(i32 noundef 5, i32 noundef 48)
  %39 = tail call ptr (ptr, ptr, ptr, ptr, i32, i32, ptr, ...) @proto_tree_add_expert_format(ptr noundef %1, ptr noundef %2, ptr noundef nonnull @ei_gsm_a_gm_missing_mandatory_element, ptr noundef %0, i32 noundef %.1134, i32 noundef 0, ptr noundef nonnull @.str.1095, ptr noundef %38, ptr noundef nonnull @.str.1129)
  br label %40

40:                                               ; preds = %37, %33
  %.2135 = phi i32 [ %35, %33 ], [ %.1134, %37 ]
  %.2 = phi i32 [ %36, %33 ], [ %.1, %37 ]
  %41 = icmp sgt i32 %.2, 0
  br i1 %41, label %42, label %48

42:                                               ; preds = %40
  %43 = tail call zeroext i16 @elem_lv(ptr noundef %0, ptr noundef %1, ptr noundef %2, i32 noundef 5, i32 noundef 47, i32 noundef %.2135, i32 noundef %.2, ptr noundef nonnull @.str.1130)
  %.not158 = icmp eq i16 %43, 0
  br i1 %.not158, label %48, label %44

44:                                               ; preds = %42
  %45 = zext i16 %43 to i32
  %46 = add i32 %.2135, %45
  %47 = sub nsw i32 %.2, %45
  br label %51

48:                                               ; preds = %42, %40
  %49 = tail call ptr @get_gsm_a_msg_string(i32 noundef 5, i32 noundef 47)
  %50 = tail call ptr (ptr, ptr, ptr, ptr, i32, i32, ptr, ...) @proto_tree_add_expert_format(ptr noundef %1, ptr noundef %2, ptr noundef nonnull @ei_gsm_a_gm_missing_mandatory_element, ptr noundef %0, i32 noundef %.2135, i32 noundef 0, ptr noundef nonnull @.str.1095, ptr noundef %49, ptr noundef nonnull @.str.1130)
  br label %51

51:                                               ; preds = %48, %44
  %.3136 = phi i32 [ %46, %44 ], [ %.2135, %48 ]
  %.3 = phi i32 [ %47, %44 ], [ %.2, %48 ]
  %52 = icmp slt i32 %.3, 1
  br i1 %52, label %96, label %53

53:                                               ; preds = %51
  %54 = tail call zeroext i16 @elem_tlv(ptr noundef %0, ptr noundef %1, ptr noundef %2, i8 noundef zeroext 40, i32 noundef 5, i32 noundef 43, i32 noundef %.3136, i32 noundef %.3, ptr noundef null)
  %55 = zext i16 %54 to i32
  %56 = sub nsw i32 %.3, %55
  %57 = icmp slt i32 %56, 1
  br i1 %57, label %96, label %58

58:                                               ; preds = %53
  %59 = add i32 %.3136, %55
  %60 = tail call zeroext i16 @elem_tlv(ptr noundef %0, ptr noundef %1, ptr noundef %2, i8 noundef zeroext 39, i32 noundef 5, i32 noundef 45, i32 noundef %59, i32 noundef %56, ptr noundef null)
  %61 = zext i16 %60 to i32
  %62 = sub nsw i32 %56, %61
  %63 = icmp slt i32 %62, 1
  br i1 %63, label %96, label %64

64:                                               ; preds = %58
  %65 = add i32 %59, %61
  %66 = tail call zeroext i16 @elem_tv_short(ptr noundef %0, ptr noundef %1, ptr noundef %2, i8 noundef zeroext -96, i32 noundef 5, i32 noundef 62, i32 noundef %65, ptr noundef null)
  %67 = zext i16 %66 to i32
  %68 = sub nsw i32 %62, %67
  %69 = icmp slt i32 %68, 1
  br i1 %69, label %96, label %70

70:                                               ; preds = %64
  %71 = add i32 %65, %67
  %72 = tail call zeroext i16 @elem_tv_short(ptr noundef %0, ptr noundef %1, ptr noundef %2, i8 noundef zeroext -64, i32 noundef 5, i32 noundef 75, i32 noundef %71, ptr noundef null)
  %73 = zext i16 %72 to i32
  %74 = sub nsw i32 %68, %73
  %75 = icmp slt i32 %74, 1
  br i1 %75, label %96, label %76

76:                                               ; preds = %70
  %77 = add i32 %71, %73
  %78 = tail call zeroext i16 @elem_tlv(ptr noundef %0, ptr noundef %1, ptr noundef %2, i8 noundef zeroext 51, i32 noundef 5, i32 noundef 66, i32 noundef %77, i32 noundef %74, ptr noundef null)
  %79 = zext i16 %78 to i32
  %80 = sub nsw i32 %74, %79
  %81 = icmp slt i32 %80, 1
  br i1 %81, label %96, label %82

82:                                               ; preds = %76
  %83 = add i32 %77, %79
  %84 = tail call zeroext i16 @elem_tlv_e(ptr noundef %0, ptr noundef %1, ptr noundef %2, i8 noundef zeroext 123, i32 noundef 5, i32 noundef 46, i32 noundef %83, i32 noundef %80, ptr noundef null)
  %85 = zext i16 %84 to i32
  %86 = sub nsw i32 %80, %85
  %87 = icmp slt i32 %86, 1
  br i1 %87, label %96, label %88

88:                                               ; preds = %82
  %89 = add i32 %83, %85
  %90 = tail call zeroext i16 @elem_tlv(ptr noundef %0, ptr noundef %1, ptr noundef %2, i8 noundef zeroext 92, i32 noundef 5, i32 noundef 50, i32 noundef %89, i32 noundef %86, ptr noundef null)
  %91 = zext i16 %90 to i32
  %.not166 = icmp eq i32 %86, %91
  br i1 %.not166, label %96, label %92

92:                                               ; preds = %88
  %93 = sub nsw i32 %86, %91
  %94 = add i32 %89, %91
  %95 = tail call ptr @proto_tree_add_expert(ptr noundef %1, ptr noundef %2, ptr noundef nonnull @ei_gsm_a_gm_extraneous_data, ptr noundef %0, i32 noundef %94, i32 noundef %93)
  br label %96

96:                                               ; preds = %88, %92, %82, %76, %70, %64, %58, %53, %51
  ret void
}